; ModuleID = 'source-C-CXX/30/1912.c'
source_filename = "source-C-CXX/30/1912.c"
target datalayout = "e-m:e-p270:32:32-p271:32:32-p272:64:64-i64:64-f80:128-n8:16:32:64-S128"
target triple = "x86_64-pc-linux-gnu"

%struct.student = type { [100 x i8], [100 x i8], [2 x i8], [100 x i8], [100 x i8], [100 x i8], %struct.student* }

@.str = private unnamed_addr constant [3 x i8] c"%s\00", align 1
@.str.1 = private unnamed_addr constant [4 x i8] c"end\00", align 1
@.str.2 = private unnamed_addr constant [11 x i8] c"%s%s%s%s%s\00", align 1
@.str.3 = private unnamed_addr constant [19 x i8] c"%s %s %s %s %s %s\0A\00", align 1

; Function Attrs: nofree nounwind sspstrong uwtable
define dso_local %struct.student* @creat() local_unnamed_addr #0 {
  %1 = tail call noalias align 16 dereferenceable_or_null(100) i8* @malloc(i64 100) #4
  %2 = bitcast i8* %1 to %struct.student*
  %3 = getelementptr inbounds %struct.student, %struct.student* %2, i64 0, i32 0, i64 0
  %4 = tail call i32 (i8*, ...) @__isoc99_scanf(i8* getelementptr inbounds ([3 x i8], [3 x i8]* @.str, i64 0, i64 0), i8* %3)
  %5 = getelementptr inbounds %struct.student, %struct.student* %2, i64 0, i32 6
  store %struct.student* null, %struct.student** %5, align 8, !tbaa !5
  %6 = tail call i32 @strcmp(i8* noundef nonnull dereferenceable(1) %3, i8* noundef nonnull dereferenceable(4) getelementptr inbounds ([4 x i8], [4 x i8]* @.str.1, i64 0, i64 0)) #5
  %7 = icmp eq i32 %6, 0
  br i1 %7, label %23, label %8

8:                                                ; preds = %0, %8
  %9 = phi %struct.student* [ %17, %8 ], [ %2, %0 ]
  %10 = getelementptr inbounds %struct.student, %struct.student* %9, i64 0, i32 1, i64 0
  %11 = getelementptr inbounds %struct.student, %struct.student* %9, i64 0, i32 2, i64 0
  %12 = getelementptr inbounds %struct.student, %struct.student* %9, i64 0, i32 3, i64 0
  %13 = getelementptr inbounds %struct.student, %struct.student* %9, i64 0, i32 4, i64 0
  %14 = getelementptr inbounds %struct.student, %struct.student* %9, i64 0, i32 5, i64 0
  %15 = tail call i32 (i8*, ...) @__isoc99_scanf(i8* getelementptr inbounds ([11 x i8], [11 x i8]* @.str.2, i64 0, i64 0), i8* nonnull %10, i8* nonnull %11, i8* nonnull %12, i8* nonnull %13, i8* nonnull %14)
  %16 = tail call noalias align 16 dereferenceable_or_null(100) i8* @malloc(i64 100) #4
  %17 = bitcast i8* %16 to %struct.student*
  %18 = getelementptr inbounds %struct.student, %struct.student* %17, i64 0, i32 0, i64 0
  %19 = tail call i32 (i8*, ...) @__isoc99_scanf(i8* getelementptr inbounds ([3 x i8], [3 x i8]* @.str, i64 0, i64 0), i8* %18)
  %20 = getelementptr inbounds %struct.student, %struct.student* %17, i64 0, i32 6
  store %struct.student* %9, %struct.student** %20, align 8, !tbaa !5
  %21 = tail call i32 @strcmp(i8* noundef nonnull dereferenceable(1) %18, i8* noundef nonnull dereferenceable(4) getelementptr inbounds ([4 x i8], [4 x i8]* @.str.1, i64 0, i64 0)) #5
  %22 = icmp eq i32 %21, 0
  br i1 %22, label %23, label %8

23:                                               ; preds = %8, %0
  %24 = phi %struct.student* [ null, %0 ], [ %9, %8 ]
  ret %struct.student* %24
}

; Function Attrs: inaccessiblememonly mustprogress nofree nounwind willreturn
declare noalias noundef align 16 i8* @malloc(i64 noundef) local_unnamed_addr #1

; Function Attrs: nofree nounwind
declare noundef i32 @__isoc99_scanf(i8* nocapture noundef readonly, ...) local_unnamed_addr #2

; Function Attrs: argmemonly mustprogress nofree nounwind readonly willreturn
declare i32 @strcmp(i8* nocapture, i8* nocapture) local_unnamed_addr #3

; Function Attrs: nofree nounwind sspstrong uwtable
define dso_local void @print(%struct.student* %0) local_unnamed_addr #0 {
  %2 = icmp eq %struct.student* %0, null
  br i1 %2, label %15, label %3

3:                                                ; preds = %1, %3
  %4 = phi %struct.student* [ %13, %3 ], [ %0, %1 ]
  %5 = getelementptr inbounds %struct.student, %struct.student* %4, i64 0, i32 0, i64 0
  %6 = getelementptr inbounds %struct.student, %struct.student* %4, i64 0, i32 1, i64 0
  %7 = getelementptr inbounds %struct.student, %struct.student* %4, i64 0, i32 2, i64 0
  %8 = getelementptr inbounds %struct.student, %struct.student* %4, i64 0, i32 3, i64 0
  %9 = getelementptr inbounds %struct.student, %struct.student* %4, i64 0, i32 4, i64 0
  %10 = getelementptr inbounds %struct.student, %struct.student* %4, i64 0, i32 5, i64 0
  %11 = tail call i32 (i8*, ...) @printf(i8* nonnull dereferenceable(1) getelementptr inbounds ([19 x i8], [19 x i8]* @.str.3, i64 0, i64 0), i8* nonnull %5, i8* nonnull %6, i8* nonnull %7, i8* nonnull %8, i8* nonnull %9, i8* nonnull %10)
  %12 = getelementptr inbounds %struct.student, %struct.student* %4, i64 0, i32 6
  %13 = load %struct.student*, %struct.student** %12, align 8, !tbaa !5
  %14 = icmp eq %struct.student* %13, null
  br i1 %14, label %15, label %3, !llvm.loop !10

15:                                               ; preds = %3, %1
  ret void
}

; Function Attrs: nofree nounwind
declare noundef i32 @printf(i8* nocapture noundef readonly, ...) local_unnamed_addr #2

; Function Attrs: nofree nounwind sspstrong uwtable
define dso_local void @main() local_unnamed_addr #0 {
  %1 = tail call %struct.student* @creat()
  %2 = icmp eq %struct.student* %1, null
  br i1 %2, label %15, label %3

3:                                                ; preds = %0, %3
  %4 = phi %struct.student* [ %13, %3 ], [ %1, %0 ]
  %5 = getelementptr inbounds %struct.student, %struct.student* %4, i64 0, i32 0, i64 0
  %6 = getelementptr inbounds %struct.student, %struct.student* %4, i64 0, i32 1, i64 0
  %7 = getelementptr inbounds %struct.student, %struct.student* %4, i64 0, i32 2, i64 0
  %8 = getelementptr inbounds %struct.student, %struct.student* %4, i64 0, i32 3, i64 0
  %9 = getelementptr inbounds %struct.student, %struct.student* %4, i64 0, i32 4, i64 0
  %10 = getelementptr inbounds %struct.student, %struct.student* %4, i64 0, i32 5, i64 0
  %11 = tail call i32 (i8*, ...) @printf(i8* nonnull dereferenceable(1) getelementptr inbounds ([19 x i8], [19 x i8]* @.str.3, i64 0, i64 0), i8* nonnull %5, i8* nonnull %6, i8* nonnull %7, i8* nonnull %8, i8* nonnull %9, i8* nonnull %10) #4
  %12 = getelementptr inbounds %struct.student, %struct.student* %4, i64 0, i32 6
  %13 = load %struct.student*, %struct.student** %12, align 8, !tbaa !5
  %14 = icmp eq %struct.student* %13, null
  br i1 %14, label %15, label %3, !llvm.loop !10

15:                                               ; preds = %3, %0
  ret void
}


!llvm.module.flags = !{!0, !1, !2, !3}
!llvm.ident = !{!4}

!0 = !{i32 1, !"wchar_size", i32 4}
!1 = !{i32 7, !"PIC Level", i32 2}
!2 = !{i32 7, !"PIE Level", i32 2}
!3 = !{i32 7, !"uwtable", i32 1}
!4 = !{!"clang version 13.0.0"}
!5 = !{!6, !9, i64 504}
!6 = !{!"student", !7, i64 0, !7, i64 100, !7, i64 200, !7, i64 202, !7, i64 302, !7, i64 402, !9, i64 504}
!7 = !{!"omnipotent char", !8, i64 0}
!8 = !{!"Simple C/C++ TBAA"}
!9 = !{!"any pointer", !7, i64 0}
!10 = distinct !{!10, !11}
!11 = !{!"llvm.loop.mustprogress"}
